; Function Attrs: nounwind uwtable
define dso_local i32 @sdscmplex(ptr noundef %0, ptr noundef %1) local_unnamed_addr #0 {
  %3 = icmp eq ptr %0, %1
  br i1 %3, label %15, label %4

4:                                                ; preds = %2
  %5 = load ptr, ptr getelementptr inbounds nuw (i8, ptr @shared, i64 81904), align 8, !tbaa !61
  %6 = icmp eq ptr %0, %5
  br i1 %6, label %15, label %7

7:                                                ; preds = %4
  %8 = load ptr, ptr getelementptr inbounds nuw (i8, ptr @shared, i64 81912), align 8, !tbaa !64
  %9 = icmp eq ptr %1, %8
  br i1 %9, label %15, label %10

10:                                               ; preds = %7
  %11 = icmp eq ptr %0, %8
  %12 = icmp eq ptr %1, %5
  %or.cond = or i1 %12, %11
  br i1 %or.cond, label %15, label %13

13:                                               ; preds = %10
  %14 = tail call i32 @sdscmp(ptr noundef %0, ptr noundef %1) #18
  br label %15

15:                                               ; preds = %10, %4, %7, %2, %13
  %.0 = phi i32 [ %14, %13 ], [ 0, %2 ], [ -1, %7 ], [ -1, %4 ], [ 1, %10 ]
  ret i32 %.0
}